target datalayout = "e-m:e-p270:32:32-p271:32:32-p272:64:64-i64:64-i128:128-f80:128-n8:16:32:64-S128"
target triple = "x86_64-pc-linux-gnu"

%struct.config_s = type { i16, i16, i16, i16, ptr }
%struct.z_stream_s = type { ptr, i32, i64, ptr, i32, i64, ptr, ptr, ptr, ptr, ptr, i32, i64, i64 }
%struct.internal_state = type { ptr, i32, ptr, i64, ptr, i64, i32, ptr, i64, i8, i32, i32, i32, i32, ptr, i64, ptr, ptr, i32, i32, i32, i32, i32, i64, i32, i32, i32, i32, i32, i32, i32, i32, i32, i32, i32, i32, i32, [573 x %struct.ct_data_s], [61 x %struct.ct_data_s], [39 x %struct.ct_data_s], %struct.tree_desc_s, %struct.tree_desc_s, %struct.tree_desc_s, [16 x i16], [573 x i32], i32, i32, [573 x i8], ptr, i32, i32, i32, i64, i64, i32, i32, i16, i32, i32, i64 }
%struct.ct_data_s = type { %union.anon, %union.anon.0 }
%union.anon = type { i16 }
%union.anon.0 = type { i16 }
%struct.tree_desc_s = type { ptr, i32, ptr }

; Function Attrs: nounwind uwtable
define internal void @lm_init(ptr noundef %0) #0 {
  %2 = alloca ptr, align 8
  store ptr %0, ptr %2, align 8, !tbaa !20
  %3 = load ptr, ptr %2, align 8, !tbaa !20
  %4 = getelementptr inbounds nuw %struct.internal_state, ptr %3, i32 0, i32 11
  %5 = load i32, ptr %4, align 8, !tbaa !34
  %6 = zext i32 %5 to i64
  %7 = mul i64 2, %6
  %8 = load ptr, ptr %2, align 8, !tbaa !20
  %9 = getelementptr inbounds nuw %struct.internal_state, ptr %8, i32 0, i32 15
  store i64 %7, ptr %9, align 8, !tbaa !67
  br label %10

10:                                               ; preds = %1
  %11 = load ptr, ptr %2, align 8, !tbaa !20
  %12 = getelementptr inbounds nuw %struct.internal_state, ptr %11, i32 0, i32 17
  %13 = load ptr, ptr %12, align 8, !tbaa !42
  %14 = load ptr, ptr %2, align 8, !tbaa !20
  %15 = getelementptr inbounds nuw %struct.internal_state, ptr %14, i32 0, i32 19
  %16 = load i32, ptr %15, align 4, !tbaa !37
  %17 = sub i32 %16, 1
  %18 = zext i32 %17 to i64
  %19 = getelementptr inbounds nuw i16, ptr %13, i64 %18
  store i16 0, ptr %19, align 2, !tbaa !54
  %20 = load ptr, ptr %2, align 8, !tbaa !20
  %21 = getelementptr inbounds nuw %struct.internal_state, ptr %20, i32 0, i32 17
  %22 = load ptr, ptr %21, align 8, !tbaa !42
  %23 = load ptr, ptr %2, align 8, !tbaa !20
  %24 = getelementptr inbounds nuw %struct.internal_state, ptr %23, i32 0, i32 19
  %25 = load i32, ptr %24, align 4, !tbaa !37
  %26 = sub i32 %25, 1
  %27 = zext i32 %26 to i64
  %28 = mul i64 %27, 2
  call void @llvm.memset.p0.i64(ptr align 1 %22, i8 0, i64 %28, i1 false)
  br label %29

29:                                               ; preds = %10
  %30 = load ptr, ptr %2, align 8, !tbaa !20
  %31 = getelementptr inbounds nuw %struct.internal_state, ptr %30, i32 0, i32 33
  %32 = load i32, ptr %31, align 4, !tbaa !49
  %33 = sext i32 %32 to i64
  %34 = getelementptr inbounds [10 x %struct.config_s], ptr @configuration_table, i64 0, i64 %33
  %35 = getelementptr inbounds nuw %struct.config_s, ptr %34, i32 0, i32 1
  %36 = load i16, ptr %35, align 2, !tbaa !80
  %37 = zext i16 %36 to i32
  %38 = load ptr, ptr %2, align 8, !tbaa !20
  %39 = getelementptr inbounds nuw %struct.internal_state, ptr %38, i32 0, i32 32
  store i32 %37, ptr %39, align 8, !tbaa !82
  %40 = load ptr, ptr %2, align 8, !tbaa !20
  %41 = getelementptr inbounds nuw %struct.internal_state, ptr %40, i32 0, i32 33
  %42 = load i32, ptr %41, align 4, !tbaa !49
  %43 = sext i32 %42 to i64
  %44 = getelementptr inbounds [10 x %struct.config_s], ptr @configuration_table, i64 0, i64 %43
  %45 = getelementptr inbounds nuw %struct.config_s, ptr %44, i32 0, i32 0
  %46 = load i16, ptr %45, align 16, !tbaa !83
  %47 = zext i16 %46 to i32
  %48 = load ptr, ptr %2, align 8, !tbaa !20
  %49 = getelementptr inbounds nuw %struct.internal_state, ptr %48, i32 0, i32 35
  store i32 %47, ptr %49, align 4, !tbaa !84
  %50 = load ptr, ptr %2, align 8, !tbaa !20
  %51 = getelementptr inbounds nuw %struct.internal_state, ptr %50, i32 0, i32 33
  %52 = load i32, ptr %51, align 4, !tbaa !49
  %53 = sext i32 %52 to i64
  %54 = getelementptr inbounds [10 x %struct.config_s], ptr @configuration_table, i64 0, i64 %53
  %55 = getelementptr inbounds nuw %struct.config_s, ptr %54, i32 0, i32 2
  %56 = load i16, ptr %55, align 4, !tbaa !85
  %57 = zext i16 %56 to i32
  %58 = load ptr, ptr %2, align 8, !tbaa !20
  %59 = getelementptr inbounds nuw %struct.internal_state, ptr %58, i32 0, i32 36
  store i32 %57, ptr %59, align 8, !tbaa !86
  %60 = load ptr, ptr %2, align 8, !tbaa !20
  %61 = getelementptr inbounds nuw %struct.internal_state, ptr %60, i32 0, i32 33
  %62 = load i32, ptr %61, align 4, !tbaa !49
  %63 = sext i32 %62 to i64
  %64 = getelementptr inbounds [10 x %struct.config_s], ptr @configuration_table, i64 0, i64 %63
  %65 = getelementptr inbounds nuw %struct.config_s, ptr %64, i32 0, i32 3
  %66 = load i16, ptr %65, align 2, !tbaa !87
  %67 = zext i16 %66 to i32
  %68 = load ptr, ptr %2, align 8, !tbaa !20
  %69 = getelementptr inbounds nuw %struct.internal_state, ptr %68, i32 0, i32 31
  store i32 %67, ptr %69, align 4, !tbaa !88
  %70 = load ptr, ptr %2, align 8, !tbaa !20
  %71 = getelementptr inbounds nuw %struct.internal_state, ptr %70, i32 0, i32 27
  store i32 0, ptr %71, align 4, !tbaa !55
  %72 = load ptr, ptr %2, align 8, !tbaa !20
  %73 = getelementptr inbounds nuw %struct.internal_state, ptr %72, i32 0, i32 23
  store i64 0, ptr %73, align 8, !tbaa !56
  %74 = load ptr, ptr %2, align 8, !tbaa !20
  %75 = getelementptr inbounds nuw %struct.internal_state, ptr %74, i32 0, i32 29
  store i32 0, ptr %75, align 4, !tbaa !52
  %76 = load ptr, ptr %2, align 8, !tbaa !20
  %77 = getelementptr inbounds nuw %struct.internal_state, ptr %76, i32 0, i32 55
  store i32 0, ptr %77, align 4, !tbaa !57
  %78 = load ptr, ptr %2, align 8, !tbaa !20
  %79 = getelementptr inbounds nuw %struct.internal_state, ptr %78, i32 0, i32 30
  store i32 2, ptr %79, align 8, !tbaa !64
  %80 = load ptr, ptr %2, align 8, !tbaa !20
  %81 = getelementptr inbounds nuw %struct.internal_state, ptr %80, i32 0, i32 24
  store i32 2, ptr %81, align 8, !tbaa !65
  %82 = load ptr, ptr %2, align 8, !tbaa !20
  %83 = getelementptr inbounds nuw %struct.internal_state, ptr %82, i32 0, i32 26
  store i32 0, ptr %83, align 8, !tbaa !66
  %84 = load ptr, ptr %2, align 8, !tbaa !20
  %85 = getelementptr inbounds nuw %struct.internal_state, ptr %84, i32 0, i32 18
  store i32 0, ptr %85, align 8, !tbaa !60
  ret void
}

; Function Attrs: nounwind uwtable
define i32 @deflateReset(ptr noundef %0) #0 {
  %2 = alloca ptr, align 8
  %3 = alloca i32, align 4
  store ptr %0, ptr %2, align 8, !tbaa !3
  call void @llvm.lifetime.start.p0(i64 4, ptr %3) #5
  %4 = load ptr, ptr %2, align 8, !tbaa !3
  %5 = call i32 @deflateResetKeep(ptr noundef %4)
  store i32 %5, ptr %3, align 4, !tbaa !8
  %6 = load i32, ptr %3, align 4, !tbaa !8
  %7 = icmp eq i32 %6, 0
  br i1 %7, label %8, label %12

8:                                                ; preds = %1
  %9 = load ptr, ptr %2, align 8, !tbaa !3
  %10 = getelementptr inbounds nuw %struct.z_stream_s, ptr %9, i32 0, i32 7
  %11 = load ptr, ptr %10, align 8, !tbaa !21
  call void @lm_init(ptr noundef %11)
  br label %12

12:                                               ; preds = %8, %1
  %13 = load i32, ptr %3, align 4, !tbaa !8
  call void @llvm.lifetime.end.p0(i64 4, ptr %3) #5
  ret i32 %13
}